target datalayout = "e-m:e-p270:32:32-p271:32:32-p272:64:64-i64:64-i128:128-f80:128-n8:16:32:64-S128"
target triple = "x86_64-pc-linux-gnu"

%struct.bio_st = type { ptr, ptr, ptr, ptr, ptr, i32, i32, i32, i32, i32, ptr, ptr, ptr, %struct.CRYPTO_REF_COUNT, i64, i64, %struct.crypto_ex_data_st }
%struct.CRYPTO_REF_COUNT = type { i32 }
%struct.crypto_ex_data_st = type { ptr, ptr }
%struct.bio_dgram_pair_st = type { ptr, %struct.ring_buf, i64, i64, i32, ptr, ptr, i8 }
%struct.ring_buf = type { ptr, i64, i64, [2 x i64] }

@.str.2 = private unnamed_addr constant [39 x i8] c"../openssl/crypto/bio/bss_dgram_pair.c\00", align 1
@__func__.dgram_pair_read = private unnamed_addr constant [16 x i8] c"dgram_pair_read\00", align 1

; Function Attrs: nounwind uwtable
define internal void @dgram_pair_unlock_both(ptr noundef %0, ptr noundef %1) #0 {
  %3 = alloca ptr, align 8
  %4 = alloca ptr, align 8
  store ptr %0, ptr %3, align 8, !tbaa !23
  store ptr %1, ptr %4, align 8, !tbaa !23
  %5 = load ptr, ptr %3, align 8, !tbaa !23
  %6 = getelementptr inbounds nuw %struct.bio_dgram_pair_st, ptr %5, i32 0, i32 6
  %7 = load ptr, ptr %6, align 8, !tbaa !25
  %8 = call i32 @CRYPTO_THREAD_unlock(ptr noundef %7)
  %9 = load ptr, ptr %4, align 8, !tbaa !23
  %10 = getelementptr inbounds nuw %struct.bio_dgram_pair_st, ptr %9, i32 0, i32 6
  %11 = load ptr, ptr %10, align 8, !tbaa !25
  %12 = call i32 @CRYPTO_THREAD_unlock(ptr noundef %11)
  ret void
}

; Function Attrs: nounwind uwtable
define internal i32 @dgram_pair_lock_both_write(ptr noundef %0, ptr noundef %1) #0 {
  %3 = alloca i32, align 4
  %4 = alloca ptr, align 8
  %5 = alloca ptr, align 8
  %6 = alloca ptr, align 8
  %7 = alloca ptr, align 8
  %8 = alloca i32, align 4
  store ptr %0, ptr %4, align 8, !tbaa !23
  store ptr %1, ptr %5, align 8, !tbaa !23
  call void @llvm.lifetime.start.p0(i64 8, ptr %6) #8
  call void @llvm.lifetime.start.p0(i64 8, ptr %7) #8
  %9 = load ptr, ptr %4, align 8, !tbaa !23
  %10 = getelementptr inbounds nuw %struct.bio_dgram_pair_st, ptr %9, i32 0, i32 7
  %11 = load i8, ptr %10, align 8
  %12 = lshr i8 %11, 2
  %13 = and i8 %12, 1
  %14 = zext i8 %13 to i32
  %15 = icmp eq i32 %14, 1
  br i1 %15, label %16, label %18

16:                                               ; preds = %2
  %17 = load ptr, ptr %4, align 8, !tbaa !23
  br label %20

18:                                               ; preds = %2
  %19 = load ptr, ptr %5, align 8, !tbaa !23
  br label %20

20:                                               ; preds = %18, %16
  %21 = phi ptr [ %17, %16 ], [ %19, %18 ]
  store ptr %21, ptr %6, align 8, !tbaa !23
  %22 = load ptr, ptr %4, align 8, !tbaa !23
  %23 = getelementptr inbounds nuw %struct.bio_dgram_pair_st, ptr %22, i32 0, i32 7
  %24 = load i8, ptr %23, align 8
  %25 = lshr i8 %24, 2
  %26 = and i8 %25, 1
  %27 = zext i8 %26 to i32
  %28 = icmp eq i32 %27, 1
  br i1 %28, label %29, label %31

29:                                               ; preds = %20
  %30 = load ptr, ptr %5, align 8, !tbaa !23
  br label %33

31:                                               ; preds = %20
  %32 = load ptr, ptr %4, align 8, !tbaa !23
  br label %33

33:                                               ; preds = %31, %29
  %34 = phi ptr [ %30, %29 ], [ %32, %31 ]
  store ptr %34, ptr %7, align 8, !tbaa !23
  %35 = load ptr, ptr %4, align 8, !tbaa !23
  %36 = getelementptr inbounds nuw %struct.bio_dgram_pair_st, ptr %35, i32 0, i32 7
  %37 = load i8, ptr %36, align 8
  %38 = lshr i8 %37, 2
  %39 = and i8 %38, 1
  %40 = zext i8 %39 to i32
  %41 = load ptr, ptr %5, align 8, !tbaa !23
  %42 = getelementptr inbounds nuw %struct.bio_dgram_pair_st, ptr %41, i32 0, i32 7
  %43 = load i8, ptr %42, align 8
  %44 = lshr i8 %43, 2
  %45 = and i8 %44, 1
  %46 = zext i8 %45 to i32
  %47 = icmp ne i32 %40, %46
  %48 = zext i1 %47 to i32
  %49 = icmp ne i32 %48, 0
  %50 = xor i1 %49, true
  %51 = xor i1 %50, true
  %52 = zext i1 %51 to i32
  %53 = sext i32 %52 to i64
  %54 = call i64 @llvm.expect.i64(i64 %53, i64 1)
  %55 = icmp ne i64 %54, 0
  br i1 %55, label %57, label %56

56:                                               ; preds = %33
  store i32 0, ptr %3, align 4
  store i32 1, ptr %8, align 4
  br label %95

57:                                               ; preds = %33
  %58 = load ptr, ptr %4, align 8, !tbaa !23
  %59 = load ptr, ptr %5, align 8, !tbaa !23
  %60 = icmp ne ptr %58, %59
  br i1 %60, label %61, label %65

61:                                               ; preds = %57
  %62 = load ptr, ptr %6, align 8, !tbaa !23
  %63 = load ptr, ptr %7, align 8, !tbaa !23
  %64 = icmp ne ptr %62, %63
  br label %65

65:                                               ; preds = %61, %57
  %66 = phi i1 [ false, %57 ], [ %64, %61 ]
  %67 = zext i1 %66 to i32
  %68 = icmp ne i32 %67, 0
  %69 = xor i1 %68, true
  %70 = xor i1 %69, true
  %71 = zext i1 %70 to i32
  %72 = sext i32 %71 to i64
  %73 = call i64 @llvm.expect.i64(i64 %72, i64 1)
  %74 = icmp ne i64 %73, 0
  br i1 %74, label %76, label %75

75:                                               ; preds = %65
  store i32 0, ptr %3, align 4
  store i32 1, ptr %8, align 4
  br label %95

76:                                               ; preds = %65
  %77 = load ptr, ptr %6, align 8, !tbaa !23
  %78 = getelementptr inbounds nuw %struct.bio_dgram_pair_st, ptr %77, i32 0, i32 6
  %79 = load ptr, ptr %78, align 8, !tbaa !25
  %80 = call i32 @CRYPTO_THREAD_write_lock(ptr noundef %79)
  %81 = icmp eq i32 %80, 0
  br i1 %81, label %82, label %83

82:                                               ; preds = %76
  store i32 0, ptr %3, align 4
  store i32 1, ptr %8, align 4
  br label %95

83:                                               ; preds = %76
  %84 = load ptr, ptr %7, align 8, !tbaa !23
  %85 = getelementptr inbounds nuw %struct.bio_dgram_pair_st, ptr %84, i32 0, i32 6
  %86 = load ptr, ptr %85, align 8, !tbaa !25
  %87 = call i32 @CRYPTO_THREAD_write_lock(ptr noundef %86)
  %88 = icmp eq i32 %87, 0
  br i1 %88, label %89, label %94

89:                                               ; preds = %83
  %90 = load ptr, ptr %6, align 8, !tbaa !23
  %91 = getelementptr inbounds nuw %struct.bio_dgram_pair_st, ptr %90, i32 0, i32 6
  %92 = load ptr, ptr %91, align 8, !tbaa !25
  %93 = call i32 @CRYPTO_THREAD_unlock(ptr noundef %92)
  store i32 0, ptr %3, align 4
  store i32 1, ptr %8, align 4
  br label %95

94:                                               ; preds = %83
  store i32 1, ptr %3, align 4
  store i32 1, ptr %8, align 4
  br label %95

95:                                               ; preds = %94, %89, %82, %75, %56
  call void @llvm.lifetime.end.p0(i64 8, ptr %7) #8
  call void @llvm.lifetime.end.p0(i64 8, ptr %6) #8
  %96 = load i32, ptr %3, align 4
  ret i32 %96
}

; Function Attrs: nounwind uwtable
define internal i32 @dgram_pair_read(ptr noundef %0, ptr noundef %1, i32 noundef %2) #0 {
  %4 = alloca i32, align 4
  %5 = alloca ptr, align 8
  %6 = alloca ptr, align 8
  %7 = alloca i32, align 4
  %8 = alloca i32, align 4
  %9 = alloca i64, align 8
  %10 = alloca ptr, align 8
  %11 = alloca ptr, align 8
  %12 = alloca i32, align 4
  store ptr %0, ptr %5, align 8, !tbaa !12
  store ptr %1, ptr %6, align 8, !tbaa !14
  store i32 %2, ptr %7, align 4, !tbaa !10
  call void @llvm.lifetime.start.p0(i64 4, ptr %8) #8
  call void @llvm.lifetime.start.p0(i64 8, ptr %9) #8
  call void @llvm.lifetime.start.p0(i64 8, ptr %10) #8
  %13 = load ptr, ptr %5, align 8, !tbaa !12
  %14 = getelementptr inbounds nuw %struct.bio_st, ptr %13, i32 0, i32 10
  %15 = load ptr, ptr %14, align 8, !tbaa !16
  store ptr %15, ptr %10, align 8, !tbaa !23
  call void @llvm.lifetime.start.p0(i64 8, ptr %11) #8
  %16 = load i32, ptr %7, align 4, !tbaa !10
  %17 = icmp slt i32 %16, 0
  br i1 %17, label %18, label %19

18:                                               ; preds = %3
  call void @ERR_new()
  call void @ERR_set_debug(ptr noundef @.str.2, i32 noundef 1016, ptr noundef @__func__.dgram_pair_read)
  call void (i32, i32, ptr, ...) @ERR_set_error(i32 noundef 32, i32 noundef 125, ptr noundef null)
  store i32 -1, ptr %4, align 4
  store i32 1, ptr %12, align 4
  br label %59

19:                                               ; preds = %3
  %20 = load ptr, ptr %10, align 8, !tbaa !23
  %21 = getelementptr inbounds nuw %struct.bio_dgram_pair_st, ptr %20, i32 0, i32 0
  %22 = load ptr, ptr %21, align 8, !tbaa !29
  %23 = icmp eq ptr %22, null
  br i1 %23, label %24, label %25

24:                                               ; preds = %19
  call void @ERR_new()
  call void @ERR_set_debug(ptr noundef @.str.2, i32 noundef 1021, ptr noundef @__func__.dgram_pair_read)
  call void (i32, i32, ptr, ...) @ERR_set_error(i32 noundef 32, i32 noundef 124, ptr noundef null)
  store i32 -1, ptr %4, align 4
  store i32 1, ptr %12, align 4
  br label %59

25:                                               ; preds = %19
  %26 = load ptr, ptr %10, align 8, !tbaa !23
  %27 = getelementptr inbounds nuw %struct.bio_dgram_pair_st, ptr %26, i32 0, i32 0
  %28 = load ptr, ptr %27, align 8, !tbaa !29
  %29 = getelementptr inbounds nuw %struct.bio_st, ptr %28, i32 0, i32 10
  %30 = load ptr, ptr %29, align 8, !tbaa !16
  store ptr %30, ptr %11, align 8, !tbaa !23
  %31 = load ptr, ptr %11, align 8, !tbaa !23
  %32 = load ptr, ptr %10, align 8, !tbaa !23
  %33 = call i32 @dgram_pair_lock_both_write(ptr noundef %31, ptr noundef %32)
  %34 = icmp eq i32 %33, 0
  br i1 %34, label %35, label %36

35:                                               ; preds = %25
  call void @ERR_new()
  call void @ERR_set_debug(ptr noundef @.str.2, i32 noundef 1033, ptr noundef @__func__.dgram_pair_read)
  call void (i32, i32, ptr, ...) @ERR_set_error(i32 noundef 32, i32 noundef 786704, ptr noundef null)
  store i32 -1, ptr %4, align 4
  store i32 1, ptr %12, align 4
  br label %59

36:                                               ; preds = %25
  %37 = load ptr, ptr %5, align 8, !tbaa !12
  %38 = load ptr, ptr %6, align 8, !tbaa !14
  %39 = load i32, ptr %7, align 4, !tbaa !10
  %40 = sext i32 %39 to i64
  %41 = call i64 @dgram_pair_read_actual(ptr noundef %37, ptr noundef %38, i64 noundef %40, ptr noundef null, ptr noundef null, i32 noundef 0)
  store i64 %41, ptr %9, align 8, !tbaa !8
  %42 = load i64, ptr %9, align 8, !tbaa !8
  %43 = icmp slt i64 %42, 0
  br i1 %43, label %44, label %52

44:                                               ; preds = %36
  %45 = load i64, ptr %9, align 8, !tbaa !8
  %46 = icmp ne i64 %45, -112
  br i1 %46, label %47, label %51

47:                                               ; preds = %44
  call void @ERR_new()
  call void @ERR_set_debug(ptr noundef @.str.2, i32 noundef 1040, ptr noundef @__func__.dgram_pair_read)
  %48 = load i64, ptr %9, align 8, !tbaa !8
  %49 = sub nsw i64 0, %48
  %50 = trunc i64 %49 to i32
  call void (i32, i32, ptr, ...) @ERR_set_error(i32 noundef 32, i32 noundef %50, ptr noundef null)
  br label %51

51:                                               ; preds = %47, %44
  store i32 -1, ptr %8, align 4, !tbaa !10
  br label %55

52:                                               ; preds = %36
  %53 = load i64, ptr %9, align 8, !tbaa !8
  %54 = trunc i64 %53 to i32
  store i32 %54, ptr %8, align 4, !tbaa !10
  br label %55

55:                                               ; preds = %52, %51
  %56 = load ptr, ptr %11, align 8, !tbaa !23
  %57 = load ptr, ptr %10, align 8, !tbaa !23
  call void @dgram_pair_unlock_both(ptr noundef %56, ptr noundef %57)
  %58 = load i32, ptr %8, align 4, !tbaa !10
  store i32 %58, ptr %4, align 4
  store i32 1, ptr %12, align 4
  br label %59

59:                                               ; preds = %55, %35, %24, %18
  call void @llvm.lifetime.end.p0(i64 8, ptr %11) #8
  call void @llvm.lifetime.end.p0(i64 8, ptr %10) #8
  call void @llvm.lifetime.end.p0(i64 8, ptr %9) #8
  call void @llvm.lifetime.end.p0(i64 4, ptr %8) #8
  %60 = load i32, ptr %4, align 4
  ret i32 %60
}