; Function Attrs: nounwind uwtable
define internal i32 @dgram_pair_read(ptr noundef %0, ptr noundef captures(address) %1, i32 noundef %2) #1 {
  %4 = getelementptr inbounds nuw i8, ptr %0, i64 64
  %5 = load ptr, ptr %4, align 8, !tbaa !8
  %6 = icmp slt i32 %2, 0
  br i1 %6, label %7, label %8

7:                                                ; preds = %3
  tail call void @ERR_new() #7
  tail call void @ERR_set_debug(ptr noundef nonnull @.str.2, i32 noundef 1016, ptr noundef nonnull @__func__.dgram_pair_read) #7
  tail call void (i32, i32, ptr, ...) @ERR_set_error(i32 noundef 32, i32 noundef 125, ptr noundef null) #7
  br label %54

8:                                                ; preds = %3
  %9 = load ptr, ptr %5, align 8, !tbaa !22
  %10 = icmp eq ptr %9, null
  br i1 %10, label %11, label %12

11:                                               ; preds = %8
  tail call void @ERR_new() #7
  tail call void @ERR_set_debug(ptr noundef nonnull @.str.2, i32 noundef 1021, ptr noundef nonnull @__func__.dgram_pair_read) #7
  tail call void (i32, i32, ptr, ...) @ERR_set_error(i32 noundef 32, i32 noundef 124, ptr noundef null) #7
  br label %54

12:                                               ; preds = %8
  %13 = getelementptr inbounds nuw i8, ptr %9, i64 64
  %14 = load ptr, ptr %13, align 8, !tbaa !8
  %15 = getelementptr inbounds nuw i8, ptr %14, i64 88
  %16 = load i8, ptr %15, align 8
  %17 = lshr i8 %16, 2
  %18 = and i8 %17, 1
  %.not.i = icmp eq i8 %18, 0
  %19 = select i1 %.not.i, ptr %14, ptr %5
  %20 = getelementptr inbounds nuw i8, ptr %5, i64 88
  %21 = load i8, ptr %20, align 8
  %22 = lshr i8 %21, 2
  %23 = and i8 %22, 1
  %.not17.i = icmp eq i8 %18, %23
  %.not18.i = icmp eq ptr %5, %14
  %or.cond.i = or i1 %.not18.i, %.not17.i
  br i1 %or.cond.i, label %38, label %24, !prof !23

24:                                               ; preds = %12
  %25 = select i1 %.not.i, ptr %5, ptr %14
  %26 = getelementptr inbounds nuw i8, ptr %25, i64 80
  %27 = load ptr, ptr %26, align 8, !tbaa !18
  %28 = tail call i32 @CRYPTO_THREAD_write_lock(ptr noundef %27) #7
  %29 = icmp eq i32 %28, 0
  br i1 %29, label %38, label %30

30:                                               ; preds = %24
  %31 = getelementptr inbounds nuw i8, ptr %19, i64 80
  %32 = load ptr, ptr %31, align 8, !tbaa !18
  %33 = tail call i32 @CRYPTO_THREAD_write_lock(ptr noundef %32) #7
  %34 = icmp eq i32 %33, 0
  br i1 %34, label %35, label %dgram_pair_lock_both_write.exit

35:                                               ; preds = %30
  %36 = load ptr, ptr %26, align 8, !tbaa !18
  %37 = tail call i32 @CRYPTO_THREAD_unlock(ptr noundef %36) #7
  br label %38

38:                                               ; preds = %35, %12, %24
  tail call void @ERR_new() #7
  tail call void @ERR_set_debug(ptr noundef nonnull @.str.2, i32 noundef 1033, ptr noundef nonnull @__func__.dgram_pair_read) #7
  tail call void (i32, i32, ptr, ...) @ERR_set_error(i32 noundef 32, i32 noundef 786704, ptr noundef null) #7
  br label %54

dgram_pair_lock_both_write.exit:                  ; preds = %30
  %39 = zext nneg i32 %2 to i64
  %40 = tail call fastcc i64 @dgram_pair_read_actual(ptr noundef nonnull %0, ptr noundef %1, i64 noundef %39, ptr noundef null, ptr noundef null, i32 noundef 0)
  %41 = icmp slt i64 %40, 0
  br i1 %41, label %42, label %46

42:                                               ; preds = %dgram_pair_lock_both_write.exit
  %.not = icmp eq i64 %40, -112
  br i1 %.not, label %48, label %43

43:                                               ; preds = %42
  tail call void @ERR_new() #7
  tail call void @ERR_set_debug(ptr noundef nonnull @.str.2, i32 noundef 1040, ptr noundef nonnull @__func__.dgram_pair_read) #7
  %44 = trunc i64 %40 to i32
  %45 = sub i32 0, %44
  tail call void (i32, i32, ptr, ...) @ERR_set_error(i32 noundef 32, i32 noundef %45, ptr noundef null) #7
  br label %48

46:                                               ; preds = %dgram_pair_lock_both_write.exit
  %47 = trunc i64 %40 to i32
  br label %48

48:                                               ; preds = %42, %43, %46
  %.016 = phi i32 [ %47, %46 ], [ -1, %43 ], [ -1, %42 ]
  %49 = getelementptr i8, ptr %14, i64 80
  %.val = load ptr, ptr %49, align 8, !tbaa !18
  %50 = tail call i32 @CRYPTO_THREAD_unlock(ptr noundef %.val) #7
  %51 = getelementptr inbounds nuw i8, ptr %5, i64 80
  %52 = load ptr, ptr %51, align 8, !tbaa !18
  %53 = tail call i32 @CRYPTO_THREAD_unlock(ptr noundef %52) #7
  br label %54

54:                                               ; preds = %48, %38, %11, %7
  %.0 = phi i32 [ -1, %7 ], [ -1, %11 ], [ -1, %38 ], [ %.016, %48 ]
  ret i32 %.0
}